target datalayout = "e-m:e-p270:32:32-p271:32:32-p272:64:64-i64:64-i128:128-f80:128-n8:16:32:64-S128"
target triple = "x86_64-pc-linux-gnu"

%"class.open3d::core::Dtype" = type { i32, i64, [16 x i8] }
%struct.png_image = type { ptr, i32, i32, i32, i32, i32, i32, i32, [64 x i8] }
%"class.open3d::core::Device" = type { i32, i32 }
%"class.std::__cxx11::basic_string" = type { %"struct.std::__cxx11::basic_string<char>::_Alloc_hider", i64, %union.anon }
%"struct.std::__cxx11::basic_string<char>::_Alloc_hider" = type { ptr }
%union.anon = type { i64, [8 x i8] }
%"class.open3d::t::geometry::Image" = type { %"class.open3d::t::geometry::Geometry", %"class.open3d::core::Tensor" }
%"class.open3d::t::geometry::Geometry" = type { %"class.open3d::core::IsDevice", i32, i32, %"class.std::__cxx11::basic_string" }
%"class.open3d::core::IsDevice" = type { ptr }
%"class.open3d::core::Tensor" = type { %"class.open3d::core::IsDevice", %"class.open3d::core::SizeVector", %"class.open3d::core::SizeVector", ptr, %"class.open3d::core::Dtype", %"class.std::shared_ptr" }
%"class.open3d::core::SizeVector" = type { %"class.open3d::core::SmallVector" }
%"class.open3d::core::SmallVector" = type { %"class.open3d::core::SmallVectorImpl", %"struct.open3d::core::SmallVectorStorage" }
%"class.open3d::core::SmallVectorImpl" = type { %"class.open3d::core::SmallVectorTemplateBase" }
%"class.open3d::core::SmallVectorTemplateBase" = type { %"class.open3d::core::SmallVectorTemplateCommon" }
%"class.open3d::core::SmallVectorTemplateCommon" = type { %"class.open3d::core::SmallVectorBase" }
%"class.open3d::core::SmallVectorBase" = type { ptr, i32, i32 }
%"struct.open3d::core::SmallVectorStorage" = type { [32 x i8] }
%"class.std::shared_ptr" = type { %"class.std::__shared_ptr" }
%"class.std::__shared_ptr" = type { ptr, %"class.std::__shared_count" }
%"class.std::__shared_count" = type { ptr }

@.str = private unnamed_addr constant [131 x i8] c"generated/home/dtcxzyw/WorkSpace/Projects/compilers/llvm-opt-benchmark/bench/open3d/Open3D/cpp/open3d/t/io/file_format/FilePNG.cpp\00", align 1
@__PRETTY_FUNCTION__._ZN6open3d1t2io16ReadImageFromPNGERKNSt7__cxx1112basic_stringIcSt11char_traitsIcESaIcEEERNS0_8geometry5ImageE = private unnamed_addr constant [77 x i8] c"bool open3d::t::io::ReadImageFromPNG(const std::string &, geometry::Image &)\00", align 1
@.str.3 = private unnamed_addr constant [41 x i8] c"Read PNG failed: unable to parse header.\00", align 1
@_ZN6open3d4core6UInt16E = external global %"class.open3d::core::Dtype", align 8
@_ZN6open3d4core5UInt8E = external global %"class.open3d::core::Dtype", align 8
@.str.4 = private unnamed_addr constant [41 x i8] c"Read PNG failed: unable to read file: {}\00", align 1
@.str.5 = private unnamed_addr constant [14 x i8] c"PNG error: {}\00", align 1

; Function Attrs: inlinehint mustprogress nounwind ssp uwtable
define linkonce_odr noundef ptr @_ZN6open3d4core6Tensor10GetDataPtrEv(ptr noundef nonnull align 8 dereferenceable(160) %0) #12 comdat align 2 {
  %2 = alloca ptr, align 8
  store ptr %0, ptr %2, align 8, !tbaa !60
  %3 = load ptr, ptr %2, align 8
  %4 = getelementptr inbounds nuw %"class.open3d::core::Tensor", ptr %3, i32 0, i32 3
  %5 = load ptr, ptr %4, align 8, !tbaa !62
  ret ptr %5
}

; Function Attrs: noinline noreturn nounwind ssp uwtable
define linkonce_odr hidden void @__clang_call_terminate(ptr noundef %0) #9 comdat {
  %2 = call ptr @__cxa_begin_catch(ptr %0) #25
  call void @_ZSt9terminatev() #26
  unreachable
}

; Function Attrs: mustprogress nounwind ssp uwtable
define available_externally noundef ptr @_ZNKSt7__cxx1112basic_stringIcSt11char_traitsIcESaIcEE7_M_dataEv(ptr noundef nonnull align 8 dereferenceable(32) %0) #1 align 2 {
  %2 = alloca ptr, align 8
  store ptr %0, ptr %2, align 8, !tbaa !19
  %3 = load ptr, ptr %2, align 8
  %4 = getelementptr inbounds nuw %"class.std::__cxx11::basic_string", ptr %3, i32 0, i32 0
  %5 = getelementptr inbounds nuw %"struct.std::__cxx11::basic_string<char>::_Alloc_hider", ptr %4, i32 0, i32 0
  %6 = load ptr, ptr %5, align 8, !tbaa !42
  ret ptr %6
}

; Function Attrs: mustprogress ssp uwtable
define linkonce_odr noundef ptr @_ZN6open3d1t8geometry5Image10GetDataPtrEv(ptr noundef nonnull align 8 dereferenceable(208) %0) #3 comdat align 2 {
  %2 = alloca ptr, align 8
  store ptr %0, ptr %2, align 8, !tbaa !21
  %3 = load ptr, ptr %2, align 8
  %4 = getelementptr inbounds nuw %"class.open3d::t::geometry::Image", ptr %3, i32 0, i32 1
  %5 = call noundef ptr @_ZN6open3d4core6Tensor10GetDataPtrEv(ptr noundef nonnull align 8 dereferenceable(160) %4)
  ret ptr %5
}

; Function Attrs: mustprogress nounwind ssp uwtable
define available_externally noundef ptr @_ZNKSt7__cxx1112basic_stringIcSt11char_traitsIcESaIcEE5c_strEv(ptr noundef nonnull align 8 dereferenceable(32) %0) #1 align 2 personality ptr @__gxx_personality_v0 {
  %2 = alloca ptr, align 8
  store ptr %0, ptr %2, align 8, !tbaa !19
  %3 = load ptr, ptr %2, align 8
  %4 = invoke noundef ptr @_ZNKSt7__cxx1112basic_stringIcSt11char_traitsIcESaIcEE7_M_dataEv(ptr noundef nonnull align 8 dereferenceable(32) %3)
          to label %5 unwind label %6

5:                                                ; preds = %1
  ret ptr %4

6:                                                ; preds = %1
  %7 = landingpad { ptr, i32 }
          catch ptr null
  %8 = extractvalue { ptr, i32 } %7, 0
  call void @__clang_call_terminate(ptr %8) #26
  unreachable
}

; Function Attrs: alwaysinline mustprogress nounwind
define internal ptr @memset.inline(ptr nonnull %0, i32 %1, i64 %2) #4 {
  %4 = alloca ptr, align 8
  %5 = alloca i32, align 4
  %6 = alloca i64, align 8
  store ptr %0, ptr %4, align 8, !tbaa !38
  store i32 %1, ptr %5, align 4, !tbaa !39
  store i64 %2, ptr %6, align 8, !tbaa !35
  %7 = load ptr, ptr %4, align 8, !tbaa !38
  %8 = load i32, ptr %5, align 4, !tbaa !39
  %9 = load i64, ptr %6, align 8, !tbaa !35
  %10 = load ptr, ptr %4, align 8, !tbaa !38
  %11 = call i64 @llvm.objectsize.i64.p0(ptr %10, i1 false, i1 true, i1 false)
  %12 = call ptr @__memset_chk(ptr noundef %7, i32 noundef %8, i64 noundef %9, i64 noundef %11) #25
  ret ptr %12
}

; Function Attrs: mustprogress ssp uwtable
define noundef zeroext i1 @_ZN6open3d1t2io16ReadImageFromPNGERKNSt7__cxx1112basic_stringIcSt11char_traitsIcESaIcEEERNS0_8geometry5ImageE(ptr noundef nonnull align 8 dereferenceable(32) %0, ptr noundef nonnull align 8 dereferenceable(208) %1) #3 {
  %3 = alloca i1, align 1
  %4 = alloca ptr, align 8
  %5 = alloca ptr, align 8
  %6 = alloca %struct.png_image, align 8
  %7 = alloca i32, align 4
  %8 = alloca %"class.open3d::core::Dtype", align 8
  %9 = alloca %"class.open3d::core::Device", align 4
  %10 = alloca %"class.open3d::core::Dtype", align 8
  %11 = alloca %"class.open3d::core::Device", align 4
  store ptr %0, ptr %4, align 8, !tbaa !19
  store ptr %1, ptr %5, align 8, !tbaa !21
  call void @llvm.lifetime.start.p0(i64 104, ptr %6) #25
  %12 = call ptr @memset.inline(ptr noundef %6, i32 noundef 0, i64 noundef 104) #25
  %13 = getelementptr inbounds nuw %struct.png_image, ptr %6, i32 0, i32 1
  store i32 1, ptr %13, align 8, !tbaa !23
  %14 = load ptr, ptr %4, align 8, !tbaa !19
  %15 = call noundef ptr @_ZNKSt7__cxx1112basic_stringIcSt11char_traitsIcESaIcEE5c_strEv(ptr noundef nonnull align 8 dereferenceable(32) %14) #25
  %16 = call i32 @png_image_begin_read_from_file(ptr noundef %6, ptr noundef %15)
  %17 = icmp eq i32 %16, 0
  br i1 %17, label %18, label %24

18:                                               ; preds = %2
  call void @_ZN6open3d7utility6Logger11LogWarning_IJEEEvPKciS4_S4_DpOT_(ptr noundef @.str, i32 noundef 44, ptr noundef @__PRETTY_FUNCTION__._ZN6open3d1t2io16ReadImageFromPNGERKNSt7__cxx1112basic_stringIcSt11char_traitsIcESaIcEEERNS0_8geometry5ImageE, ptr noundef @.str.3)
  %19 = load ptr, ptr %5, align 8, !tbaa !21
  %20 = load ptr, ptr %19, align 8, !tbaa !27
  %21 = getelementptr inbounds ptr, ptr %20, i64 3
  %22 = load ptr, ptr %21, align 8
  %23 = call noundef nonnull align 8 dereferenceable(208) ptr %22(ptr noundef nonnull align 8 dereferenceable(208) %19)
  store i1 false, ptr %3, align 1
  store i32 1, ptr %7, align 4
  br label %90

24:                                               ; preds = %2
  %25 = getelementptr inbounds nuw %struct.png_image, ptr %6, i32 0, i32 4
  %26 = load i32, ptr %25, align 4, !tbaa !29
  %27 = and i32 %26, 8
  %28 = icmp ne i32 %27, 0
  br i1 %28, label %29, label %33

29:                                               ; preds = %24
  %30 = getelementptr inbounds nuw %struct.png_image, ptr %6, i32 0, i32 4
  %31 = load i32, ptr %30, align 4, !tbaa !29
  %32 = and i32 %31, -9
  store i32 %32, ptr %30, align 4, !tbaa !29
  br label %33

33:                                               ; preds = %29, %24
  %34 = getelementptr inbounds nuw %struct.png_image, ptr %6, i32 0, i32 4
  %35 = load i32, ptr %34, align 4, !tbaa !29
  %36 = and i32 %35, 4
  %37 = icmp ne i32 %36, 0
  br i1 %37, label %38, label %57

38:                                               ; preds = %33
  %39 = load ptr, ptr %5, align 8, !tbaa !21
  %40 = getelementptr inbounds nuw %struct.png_image, ptr %6, i32 0, i32 3
  %41 = load i32, ptr %40, align 8, !tbaa !30
  %42 = zext i32 %41 to i64
  %43 = getelementptr inbounds nuw %struct.png_image, ptr %6, i32 0, i32 2
  %44 = load i32, ptr %43, align 4, !tbaa !31
  %45 = zext i32 %44 to i64
  %46 = getelementptr inbounds nuw %struct.png_image, ptr %6, i32 0, i32 4
  %47 = load i32, ptr %46, align 4, !tbaa !29
  %48 = and i32 %47, 3
  %49 = add i32 %48, 1
  %50 = zext i32 %49 to i64
  call void @llvm.memcpy.p0.p0.i64(ptr align 8 %8, ptr align 8 @_ZN6open3d4core6UInt16E, i64 32, i1 false), !tbaa.struct !32
  call void @llvm.lifetime.start.p0(i64 8, ptr %9) #25
  %51 = load ptr, ptr %5, align 8, !tbaa !21
  %52 = load ptr, ptr %51, align 8, !tbaa !27
  %53 = getelementptr inbounds ptr, ptr %52, i64 2
  %54 = load ptr, ptr %53, align 8
  %55 = call i64 %54(ptr noundef nonnull align 8 dereferenceable(208) %51)
  store i64 %55, ptr %9, align 4
  %56 = call noundef nonnull align 8 dereferenceable(208) ptr @_ZN6open3d1t8geometry5Image5ResetElllNS_4core5DtypeERKNS3_6DeviceE(ptr noundef nonnull align 8 dereferenceable(208) %39, i64 noundef %42, i64 noundef %45, i64 noundef %50, ptr noundef byval(%"class.open3d::core::Dtype") align 8 %8, ptr noundef nonnull align 4 dereferenceable(8) %9)
  call void @llvm.lifetime.end.p0(i64 8, ptr %9) #25
  br label %76

57:                                               ; preds = %33
  %58 = load ptr, ptr %5, align 8, !tbaa !21
  %59 = getelementptr inbounds nuw %struct.png_image, ptr %6, i32 0, i32 3
  %60 = load i32, ptr %59, align 8, !tbaa !30
  %61 = zext i32 %60 to i64
  %62 = getelementptr inbounds nuw %struct.png_image, ptr %6, i32 0, i32 2
  %63 = load i32, ptr %62, align 4, !tbaa !31
  %64 = zext i32 %63 to i64
  %65 = getelementptr inbounds nuw %struct.png_image, ptr %6, i32 0, i32 4
  %66 = load i32, ptr %65, align 4, !tbaa !29
  %67 = and i32 %66, 3
  %68 = add i32 %67, 1
  %69 = zext i32 %68 to i64
  call void @llvm.memcpy.p0.p0.i64(ptr align 8 %10, ptr align 8 @_ZN6open3d4core5UInt8E, i64 32, i1 false), !tbaa.struct !32
  call void @llvm.lifetime.start.p0(i64 8, ptr %11) #25
  %70 = load ptr, ptr %5, align 8, !tbaa !21
  %71 = load ptr, ptr %70, align 8, !tbaa !27
  %72 = getelementptr inbounds ptr, ptr %71, i64 2
  %73 = load ptr, ptr %72, align 8
  %74 = call i64 %73(ptr noundef nonnull align 8 dereferenceable(208) %70)
  store i64 %74, ptr %11, align 4
  %75 = call noundef nonnull align 8 dereferenceable(208) ptr @_ZN6open3d1t8geometry5Image5ResetElllNS_4core5DtypeERKNS3_6DeviceE(ptr noundef nonnull align 8 dereferenceable(208) %58, i64 noundef %61, i64 noundef %64, i64 noundef %69, ptr noundef byval(%"class.open3d::core::Dtype") align 8 %10, ptr noundef nonnull align 4 dereferenceable(8) %11)
  call void @llvm.lifetime.end.p0(i64 8, ptr %11) #25
  br label %76

76:                                               ; preds = %57, %38
  %77 = load ptr, ptr %5, align 8, !tbaa !21
  %78 = call noundef ptr @_ZN6open3d1t8geometry5Image10GetDataPtrEv(ptr noundef nonnull align 8 dereferenceable(208) %77)
  %79 = call i32 @png_image_finish_read(ptr noundef %6, ptr noundef null, ptr noundef %78, i32 noundef 0, ptr noundef null)
  %80 = icmp eq i32 %79, 0
  br i1 %80, label %81, label %89

81:                                               ; preds = %76
  %82 = load ptr, ptr %4, align 8, !tbaa !19
  call void @_ZN6open3d7utility6Logger11LogWarning_IJRKNSt7__cxx1112basic_stringIcSt11char_traitsIcESaIcEEEEEEvPKciSC_SC_DpOT_(ptr noundef @.str, i32 noundef 67, ptr noundef @__PRETTY_FUNCTION__._ZN6open3d1t2io16ReadImageFromPNGERKNSt7__cxx1112basic_stringIcSt11char_traitsIcESaIcEEERNS0_8geometry5ImageE, ptr noundef @.str.4, ptr noundef nonnull align 8 dereferenceable(32) %82)
  %83 = getelementptr inbounds nuw %struct.png_image, ptr %6, i32 0, i32 8
  call void @_ZN6open3d7utility6Logger11LogWarning_IJRA64_cEEEvPKciS6_S6_DpOT_(ptr noundef @.str, i32 noundef 68, ptr noundef @__PRETTY_FUNCTION__._ZN6open3d1t2io16ReadImageFromPNGERKNSt7__cxx1112basic_stringIcSt11char_traitsIcESaIcEEERNS0_8geometry5ImageE, ptr noundef @.str.5, ptr noundef nonnull align 1 dereferenceable(64) %83)
  %84 = load ptr, ptr %5, align 8, !tbaa !21
  %85 = load ptr, ptr %84, align 8, !tbaa !27
  %86 = getelementptr inbounds ptr, ptr %85, i64 3
  %87 = load ptr, ptr %86, align 8
  %88 = call noundef nonnull align 8 dereferenceable(208) ptr %87(ptr noundef nonnull align 8 dereferenceable(208) %84)
  store i1 false, ptr %3, align 1
  store i32 1, ptr %7, align 4
  br label %90

89:                                               ; preds = %76
  store i1 true, ptr %3, align 1
  store i32 1, ptr %7, align 4
  br label %90

90:                                               ; preds = %89, %81, %18
  call void @llvm.lifetime.end.p0(i64 104, ptr %6) #25
  %91 = load i1, ptr %3, align 1
  ret i1 %91
}