; Function Attrs: mustprogress ssp uwtable
define noundef zeroext i1 @_ZN6open3d1t2io16ReadImageFromPNGERKNSt7__cxx1112basic_stringIcSt11char_traitsIcESaIcEEERNS0_8geometry5ImageE(ptr noundef nonnull align 8 dereferenceable(32) %0, ptr noundef nonnull align 8 dereferenceable(208) %1) local_unnamed_addr #1 personality ptr @__gxx_personality_v0 {
  %3 = alloca %struct.png_image, align 8
  %4 = alloca %"class.open3d::core::Dtype", align 8
  %5 = alloca %"class.open3d::core::Device", align 8
  %6 = alloca %"class.open3d::core::Dtype", align 8
  %7 = alloca %"class.open3d::core::Device", align 8
  call void @llvm.lifetime.start.p0(i64 104, ptr nonnull %3) #27
  call void @llvm.memset.p0.i64(ptr noundef nonnull align 8 dereferenceable(104) %3, i8 noundef 0, i64 noundef 104, i1 noundef false) #27
  %8 = getelementptr inbounds nuw i8, ptr %3, i64 8
  store i32 1, ptr %8, align 8, !tbaa !4
  %9 = load ptr, ptr %0, align 8, !tbaa !11
  %10 = call i32 @png_image_begin_read_from_file(ptr noundef nonnull %3, ptr noundef %9)
  %11 = icmp eq i32 %10, 0
  br i1 %11, label %12, label %13

12:                                               ; preds = %2
  call void @_ZN6open3d7utility6Logger11LogWarning_IJEEEvPKciS4_S4_DpOT_(ptr noundef nonnull @.str, i32 noundef 44, ptr noundef nonnull @__PRETTY_FUNCTION__._ZN6open3d1t2io16ReadImageFromPNGERKNSt7__cxx1112basic_stringIcSt11char_traitsIcESaIcEEERNS0_8geometry5ImageE, ptr noundef nonnull @.str.3)
  br label %.sink.split

13:                                               ; preds = %2
  %14 = getelementptr inbounds nuw i8, ptr %3, i64 20
  %15 = load i32, ptr %14, align 4, !tbaa !16
  %16 = and i32 %15, 8
  %.not = icmp eq i32 %16, 0
  br i1 %.not, label %19, label %17

17:                                               ; preds = %13
  %18 = and i32 %15, -9
  store i32 %18, ptr %14, align 4, !tbaa !16
  br label %19

19:                                               ; preds = %17, %13
  %20 = phi i32 [ %18, %17 ], [ %15, %13 ]
  %21 = and i32 %20, 4
  %.not10 = icmp eq i32 %21, 0
  %22 = getelementptr inbounds nuw i8, ptr %3, i64 16
  %23 = load i32, ptr %22, align 8, !tbaa !17
  %24 = zext i32 %23 to i64
  %25 = getelementptr inbounds nuw i8, ptr %3, i64 12
  %26 = load i32, ptr %25, align 4, !tbaa !18
  %27 = zext i32 %26 to i64
  %28 = and i32 %20, 3
  %29 = add nuw nsw i32 %28, 1
  %30 = zext nneg i32 %29 to i64
  br i1 %.not10, label %37, label %31

31:                                               ; preds = %19
  call void @llvm.memcpy.p0.p0.i64(ptr noundef nonnull align 8 dereferenceable(32) %4, ptr noundef nonnull align 8 dereferenceable(32) @_ZN6open3d4core6UInt16E, i64 32, i1 false), !tbaa.struct !19
  call void @llvm.lifetime.start.p0(i64 8, ptr nonnull %5) #27
  %32 = load ptr, ptr %1, align 8, !tbaa !24
  %33 = getelementptr inbounds nuw i8, ptr %32, i64 16
  %34 = load ptr, ptr %33, align 8
  %35 = call i64 %34(ptr noundef nonnull align 8 dereferenceable(208) %1)
  store i64 %35, ptr %5, align 8
  %36 = call noundef nonnull align 8 dereferenceable(208) ptr @_ZN6open3d1t8geometry5Image5ResetElllNS_4core5DtypeERKNS3_6DeviceE(ptr noundef nonnull align 8 dereferenceable(208) %1, i64 noundef %24, i64 noundef %27, i64 noundef %30, ptr noundef nonnull byval(%"class.open3d::core::Dtype") align 8 %4, ptr noundef nonnull align 4 dereferenceable(8) %5)
  call void @llvm.lifetime.end.p0(i64 8, ptr nonnull %5) #27
  br label %43

37:                                               ; preds = %19
  call void @llvm.memcpy.p0.p0.i64(ptr noundef nonnull align 8 dereferenceable(32) %6, ptr noundef nonnull align 8 dereferenceable(32) @_ZN6open3d4core5UInt8E, i64 32, i1 false), !tbaa.struct !19
  call void @llvm.lifetime.start.p0(i64 8, ptr nonnull %7) #27
  %38 = load ptr, ptr %1, align 8, !tbaa !24
  %39 = getelementptr inbounds nuw i8, ptr %38, i64 16
  %40 = load ptr, ptr %39, align 8
  %41 = call i64 %40(ptr noundef nonnull align 8 dereferenceable(208) %1)
  store i64 %41, ptr %7, align 8
  %42 = call noundef nonnull align 8 dereferenceable(208) ptr @_ZN6open3d1t8geometry5Image5ResetElllNS_4core5DtypeERKNS3_6DeviceE(ptr noundef nonnull align 8 dereferenceable(208) %1, i64 noundef %24, i64 noundef %27, i64 noundef %30, ptr noundef nonnull byval(%"class.open3d::core::Dtype") align 8 %6, ptr noundef nonnull align 4 dereferenceable(8) %7)
  call void @llvm.lifetime.end.p0(i64 8, ptr nonnull %7) #27
  br label %43

43:                                               ; preds = %37, %31
  %44 = getelementptr inbounds nuw i8, ptr %1, i64 152
  %45 = load ptr, ptr %44, align 8, !tbaa !26
  %46 = call i32 @png_image_finish_read(ptr noundef nonnull %3, ptr noundef null, ptr noundef %45, i32 noundef 0, ptr noundef null)
  %47 = icmp eq i32 %46, 0
  br i1 %47, label %48, label %54

48:                                               ; preds = %43
  call void @_ZN6open3d7utility6Logger11LogWarning_IJRKNSt7__cxx1112basic_stringIcSt11char_traitsIcESaIcEEEEEEvPKciSC_SC_DpOT_(ptr noundef nonnull @.str, i32 noundef 67, ptr noundef nonnull @__PRETTY_FUNCTION__._ZN6open3d1t2io16ReadImageFromPNGERKNSt7__cxx1112basic_stringIcSt11char_traitsIcESaIcEEERNS0_8geometry5ImageE, ptr noundef nonnull @.str.4, ptr noundef nonnull align 8 dereferenceable(32) %0)
  %49 = getelementptr inbounds nuw i8, ptr %3, i64 36
  call void @_ZN6open3d7utility6Logger11LogWarning_IJRA64_cEEEvPKciS6_S6_DpOT_(ptr noundef nonnull @.str, i32 noundef 68, ptr noundef nonnull @__PRETTY_FUNCTION__._ZN6open3d1t2io16ReadImageFromPNGERKNSt7__cxx1112basic_stringIcSt11char_traitsIcESaIcEEERNS0_8geometry5ImageE, ptr noundef nonnull @.str.5, ptr noundef nonnull align 1 dereferenceable(64) %49)
  br label %.sink.split

.sink.split:                                      ; preds = %12, %48
  %50 = load ptr, ptr %1, align 8, !tbaa !24
  %51 = getelementptr inbounds nuw i8, ptr %50, i64 24
  %52 = load ptr, ptr %51, align 8
  %53 = call noundef nonnull align 8 dereferenceable(208) ptr %52(ptr noundef nonnull align 8 dereferenceable(208) %1)
  br label %54

54:                                               ; preds = %.sink.split, %43
  %.0 = phi i1 [ true, %43 ], [ false, %.sink.split ]
  call void @llvm.lifetime.end.p0(i64 104, ptr nonnull %3) #27
  ret i1 %.0
}